; ModuleID = '5/625.c'
source_filename = "5/625.c"
target datalayout = "e-m:e-p270:32:32-p271:32:32-p272:64:64-i64:64-f80:128-n8:16:32:64-S128"
target triple = "x86_64-pc-linux-gnu"

@.str = private unnamed_addr constant [4 x i8] c"%lf\00", align 1
@.str.1 = private unnamed_addr constant [3 x i8] c"%s\00", align 1
@.str.2 = private unnamed_addr constant [6 x i8] c"error\00", align 1
@.str.3 = private unnamed_addr constant [4 x i8] c"yes\00", align 1
@.str.4 = private unnamed_addr constant [3 x i8] c"no\00", align 1

; Function Attrs: noinline nounwind uwtable
define dso_local i32 @main() #0 {
  %1 = alloca i32, align 4
  %2 = alloca i32, align 4
  %3 = alloca i32, align 4
  %4 = alloca i32, align 4
  %5 = alloca i32, align 4
  %6 = alloca double, align 8
  %7 = alloca [2 x [500 x i8]], align 16
  %8 = alloca i32, align 4
  %9 = alloca i32, align 4
  store i32 0, i32* %1, align 4
  store i32 0, i32* %4, align 4
  %10 = call i32 (i8*, ...) @__isoc99_scanf(i8* getelementptr inbounds ([4 x i8], [4 x i8]* @.str, i64 0, i64 0), double* %6)
  %11 = getelementptr inbounds [2 x [500 x i8]], [2 x [500 x i8]]* %7, i64 0, i64 0
  %12 = getelementptr inbounds [500 x i8], [500 x i8]* %11, i64 0, i64 0
  %13 = call i32 (i8*, ...) @__isoc99_scanf(i8* getelementptr inbounds ([3 x i8], [3 x i8]* @.str.1, i64 0, i64 0), i8* %12)
  %14 = getelementptr inbounds [2 x [500 x i8]], [2 x [500 x i8]]* %7, i64 0, i64 0
  %15 = getelementptr inbounds [500 x i8], [500 x i8]* %14, i64 0, i64 0
  %16 = call i64 @strlen(i8* %15) #3
  %17 = trunc i64 %16 to i32
  store i32 %17, i32* %5, align 4
  %18 = getelementptr inbounds [2 x [500 x i8]], [2 x [500 x i8]]* %7, i64 0, i64 1
  %19 = getelementptr inbounds [500 x i8], [500 x i8]* %18, i64 0, i64 0
  %20 = call i32 (i8*, ...) @__isoc99_scanf(i8* getelementptr inbounds ([3 x i8], [3 x i8]* @.str.1, i64 0, i64 0), i8* %19)
  %21 = getelementptr inbounds [2 x [500 x i8]], [2 x [500 x i8]]* %7, i64 0, i64 1
  %22 = getelementptr inbounds [500 x i8], [500 x i8]* %21, i64 0, i64 0
  %23 = call i64 @strlen(i8* %22) #3
  %24 = trunc i64 %23 to i32
  store i32 %24, i32* %3, align 4
  %25 = load i32, i32* %5, align 4
  %26 = load i32, i32* %3, align 4
  %27 = icmp ne i32 %25, %26
  br i1 %27, label %28, label %30

28:                                               ; preds = %0
  %29 = call i32 (i8*, ...) @printf(i8* getelementptr inbounds ([6 x i8], [6 x i8]* @.str.2, i64 0, i64 0))
  store i32 0, i32* %1, align 4
  br label %161

30:                                               ; preds = %0
  store i32 0, i32* %8, align 4
  br label %31

31:                                               ; preds = %70, %30
  %32 = load i32, i32* %8, align 4
  %33 = load i32, i32* %5, align 4
  %34 = icmp slt i32 %32, %33
  br i1 %34, label %35, label %73

35:                                               ; preds = %31
  %36 = getelementptr inbounds [2 x [500 x i8]], [2 x [500 x i8]]* %7, i64 0, i64 0
  %37 = load i32, i32* %8, align 4
  %38 = sext i32 %37 to i64
  %39 = getelementptr inbounds [500 x i8], [500 x i8]* %36, i64 0, i64 %38
  %40 = load i8, i8* %39, align 1
  %41 = sext i8 %40 to i32
  %42 = icmp ne i32 %41, 65
  br i1 %42, label %43, label %69

43:                                               ; preds = %35
  %44 = getelementptr inbounds [2 x [500 x i8]], [2 x [500 x i8]]* %7, i64 0, i64 0
  %45 = load i32, i32* %8, align 4
  %46 = sext i32 %45 to i64
  %47 = getelementptr inbounds [500 x i8], [500 x i8]* %44, i64 0, i64 %46
  %48 = load i8, i8* %47, align 1
  %49 = sext i8 %48 to i32
  %50 = icmp ne i32 %49, 84
  br i1 %50, label %51, label %69

51:                                               ; preds = %43
  %52 = getelementptr inbounds [2 x [500 x i8]], [2 x [500 x i8]]* %7, i64 0, i64 0
  %53 = load i32, i32* %8, align 4
  %54 = sext i32 %53 to i64
  %55 = getelementptr inbounds [500 x i8], [500 x i8]* %52, i64 0, i64 %54
  %56 = load i8, i8* %55, align 1
  %57 = sext i8 %56 to i32
  %58 = icmp ne i32 %57, 71
  br i1 %58, label %59, label %69

59:                                               ; preds = %51
  %60 = getelementptr inbounds [2 x [500 x i8]], [2 x [500 x i8]]* %7, i64 0, i64 0
  %61 = load i32, i32* %8, align 4
  %62 = sext i32 %61 to i64
  %63 = getelementptr inbounds [500 x i8], [500 x i8]* %60, i64 0, i64 %62
  %64 = load i8, i8* %63, align 1
  %65 = sext i8 %64 to i32
  %66 = icmp ne i32 %65, 67
  br i1 %66, label %67, label %69

67:                                               ; preds = %59
  %68 = call i32 (i8*, ...) @printf(i8* getelementptr inbounds ([6 x i8], [6 x i8]* @.str.2, i64 0, i64 0))
  store i32 0, i32* %1, align 4
  br label %161

69:                                               ; preds = %59, %51, %43, %35
  br label %70

70:                                               ; preds = %69
  %71 = load i32, i32* %8, align 4
  %72 = add nsw i32 %71, 1
  store i32 %72, i32* %8, align 4
  br label %31

73:                                               ; preds = %31
  store i32 0, i32* %9, align 4
  br label %74

74:                                               ; preds = %113, %73
  %75 = load i32, i32* %9, align 4
  %76 = load i32, i32* %3, align 4
  %77 = icmp slt i32 %75, %76
  br i1 %77, label %78, label %116

78:                                               ; preds = %74
  %79 = getelementptr inbounds [2 x [500 x i8]], [2 x [500 x i8]]* %7, i64 0, i64 1
  %80 = load i32, i32* %9, align 4
  %81 = sext i32 %80 to i64
  %82 = getelementptr inbounds [500 x i8], [500 x i8]* %79, i64 0, i64 %81
  %83 = load i8, i8* %82, align 1
  %84 = sext i8 %83 to i32
  %85 = icmp ne i32 %84, 65
  br i1 %85, label %86, label %112

86:                                               ; preds = %78
  %87 = getelementptr inbounds [2 x [500 x i8]], [2 x [500 x i8]]* %7, i64 0, i64 1
  %88 = load i32, i32* %9, align 4
  %89 = sext i32 %88 to i64
  %90 = getelementptr inbounds [500 x i8], [500 x i8]* %87, i64 0, i64 %89
  %91 = load i8, i8* %90, align 1
  %92 = sext i8 %91 to i32
  %93 = icmp ne i32 %92, 84
  br i1 %93, label %94, label %112

94:                                               ; preds = %86
  %95 = getelementptr inbounds [2 x [500 x i8]], [2 x [500 x i8]]* %7, i64 0, i64 1
  %96 = load i32, i32* %9, align 4
  %97 = sext i32 %96 to i64
  %98 = getelementptr inbounds [500 x i8], [500 x i8]* %95, i64 0, i64 %97
  %99 = load i8, i8* %98, align 1
  %100 = sext i8 %99 to i32
  %101 = icmp ne i32 %100, 71
  br i1 %101, label %102, label %112

102:                                              ; preds = %94
  %103 = getelementptr inbounds [2 x [500 x i8]], [2 x [500 x i8]]* %7, i64 0, i64 1
  %104 = load i32, i32* %9, align 4
  %105 = sext i32 %104 to i64
  %106 = getelementptr inbounds [500 x i8], [500 x i8]* %103, i64 0, i64 %105
  %107 = load i8, i8* %106, align 1
  %108 = sext i8 %107 to i32
  %109 = icmp ne i32 %108, 67
  br i1 %109, label %110, label %112

110:                                              ; preds = %102
  %111 = call i32 (i8*, ...) @printf(i8* getelementptr inbounds ([6 x i8], [6 x i8]* @.str.2, i64 0, i64 0))
  store i32 0, i32* %1, align 4
  br label %161

112:                                              ; preds = %102, %94, %86, %78
  br label %113

113:                                              ; preds = %112
  %114 = load i32, i32* %9, align 4
  %115 = add nsw i32 %114, 1
  store i32 %115, i32* %9, align 4
  br label %74

116:                                              ; preds = %74
  %117 = load i32, i32* %3, align 4
  %118 = load i32, i32* %5, align 4
  %119 = icmp eq i32 %117, %118
  br i1 %119, label %120, label %160

120:                                              ; preds = %116
  store i32 0, i32* %2, align 4
  br label %121

121:                                              ; preds = %143, %120
  %122 = load i32, i32* %2, align 4
  %123 = load i32, i32* %3, align 4
  %124 = icmp slt i32 %122, %123
  br i1 %124, label %125, label %146

125:                                              ; preds = %121
  %126 = getelementptr inbounds [2 x [500 x i8]], [2 x [500 x i8]]* %7, i64 0, i64 0
  %127 = load i32, i32* %2, align 4
  %128 = sext i32 %127 to i64
  %129 = getelementptr inbounds [500 x i8], [500 x i8]* %126, i64 0, i64 %128
  %130 = load i8, i8* %129, align 1
  %131 = sext i8 %130 to i32
  %132 = getelementptr inbounds [2 x [500 x i8]], [2 x [500 x i8]]* %7, i64 0, i64 1
  %133 = load i32, i32* %2, align 4
  %134 = sext i32 %133 to i64
  %135 = getelementptr inbounds [500 x i8], [500 x i8]* %132, i64 0, i64 %134
  %136 = load i8, i8* %135, align 1
  %137 = sext i8 %136 to i32
  %138 = icmp eq i32 %131, %137
  br i1 %138, label %139, label %142

139:                                              ; preds = %125
  %140 = load i32, i32* %4, align 4
  %141 = add nsw i32 %140, 1
  store i32 %141, i32* %4, align 4
  br label %142

142:                                              ; preds = %139, %125
  br label %143

143:                                              ; preds = %142
  %144 = load i32, i32* %2, align 4
  %145 = add nsw i32 %144, 1
  store i32 %145, i32* %2, align 4
  br label %121

146:                                              ; preds = %121
  %147 = load i32, i32* %4, align 4
  %148 = sitofp i32 %147 to double
  %149 = fmul double %148, 1.000000e+00
  %150 = load i32, i32* %3, align 4
  %151 = sitofp i32 %150 to double
  %152 = fdiv double %149, %151
  %153 = load double, double* %6, align 8
  %154 = fcmp ogt double %152, %153
  br i1 %154, label %155, label %157

155:                                              ; preds = %146
  %156 = call i32 (i8*, ...) @printf(i8* getelementptr inbounds ([4 x i8], [4 x i8]* @.str.3, i64 0, i64 0))
  br label %159

157:                                              ; preds = %146
  %158 = call i32 (i8*, ...) @printf(i8* getelementptr inbounds ([3 x i8], [3 x i8]* @.str.4, i64 0, i64 0))
  br label %159

159:                                              ; preds = %157, %155
  br label %160

160:                                              ; preds = %159, %116
  store i32 0, i32* %1, align 4
  br label %161

161:                                              ; preds = %160, %110, %67, %28
  %162 = load i32, i32* %1, align 4
  ret i32 %162
}

declare dso_local i32 @__isoc99_scanf(i8*, ...) #1

; Function Attrs: nounwind readonly
declare dso_local i64 @strlen(i8*) #2

declare dso_local i32 @printf(i8*, ...) #1


!llvm.module.flags = !{!0}
!llvm.ident = !{!1}

!0 = !{i32 1, !"wchar_size", i32 4}
!1 = !{!"clang version 10.0.0-4ubuntu1 "}
